; Function Attrs: noinline norecurse nounwind uwtable
define internal void @_ZN8LightGBM8Metadata21SetLabelsFromIteratorIPKfEEvT_S4_.omp_outlined(ptr noalias noundef readonly captures(none) %0, ptr noalias readnone captures(none) %1, ptr noundef readonly captures(none) %2, ptr noundef nonnull readonly align 8 captures(none) dereferenceable(8) %3) #19 personality ptr @__gxx_personality_v0 {
  %5 = alloca i32, align 4
  %6 = alloca i32, align 4
  %7 = alloca i32, align 4
  %8 = alloca i32, align 4
  %9 = getelementptr inbounds nuw i8, ptr %2, i64 32
  %10 = load i32, ptr %9, align 8, !tbaa !40
  %11 = add nsw i32 %10, -1
  %12 = icmp sgt i32 %10, 0
  br i1 %12, label %13, label %38

13:                                               ; preds = %4
  call void @llvm.lifetime.start.p0(i64 4, ptr nonnull %5) #20
  store i32 0, ptr %5, align 4, !tbaa !59
  call void @llvm.lifetime.start.p0(i64 4, ptr nonnull %6) #20
  store i32 %11, ptr %6, align 4, !tbaa !59
  call void @llvm.lifetime.start.p0(i64 4, ptr nonnull %7) #20
  store i32 1, ptr %7, align 4, !tbaa !59
  call void @llvm.lifetime.start.p0(i64 4, ptr nonnull %8) #20
  store i32 0, ptr %8, align 4, !tbaa !59
  %14 = load i32, ptr %0, align 4, !tbaa !59
  call void @__kmpc_for_static_init_4(ptr nonnull @1, i32 %14, i32 33, ptr nonnull %8, ptr nonnull %5, ptr nonnull %6, ptr nonnull %7, i32 1, i32 512)
  %.promoted = load i32, ptr %6, align 4, !tbaa !59
  %.promoted17 = load i32, ptr %5, align 4, !tbaa !59
  %15 = call i32 @llvm.smin.i32(i32 %.promoted, i32 %11)
  %.not18 = icmp sgt i32 %.promoted17, %15
  br i1 %.not18, label %37, label %.preheader.lr.ph

.preheader.lr.ph:                                 ; preds = %13
  %16 = load ptr, ptr %3, align 8, !tbaa !99
  %17 = getelementptr inbounds nuw i8, ptr %2, i64 48
  %18 = load ptr, ptr %17, align 8, !tbaa !70
  %19 = load i32, ptr %7, align 4, !tbaa !59
  %20 = sext i32 %.promoted17 to i64
  %21 = sext i32 %19 to i64
  br label %.preheader

.preheader:                                       ; preds = %.preheader.lr.ph, %34
  %indvars.iv = phi i64 [ %20, %.preheader.lr.ph ], [ %indvars.iv.next, %34 ]
  %22 = phi i32 [ %15, %.preheader.lr.ph ], [ %36, %34 ]
  %23 = sext i32 %22 to i64
  br label %24

24:                                               ; preds = %.preheader, %_ZN8LightGBM6CommonL8AvoidInfEf.exit
  %indvars.iv22 = phi i64 [ %indvars.iv, %.preheader ], [ %indvars.iv.next23, %_ZN8LightGBM6CommonL8AvoidInfEf.exit ]
  %25 = getelementptr inbounds float, ptr %16, i64 %indvars.iv22
  %26 = load float, ptr %25, align 4, !tbaa !68
  %27 = fcmp uno float %26, 0.000000e+00
  br i1 %27, label %_ZN8LightGBM6CommonL8AvoidInfEf.exit, label %28

28:                                               ; preds = %24
  %29 = fpext float %26 to double
  %30 = fcmp ult double %29, 0x47D2CED32A16A1B1
  br i1 %30, label %31, label %_ZN8LightGBM6CommonL8AvoidInfEf.exit

31:                                               ; preds = %28
  %32 = fcmp ugt double %29, 0xC7D2CED32A16A1B1
  %..i = select i1 %32, float %26, float 0xC7D2CED320000000
  br label %_ZN8LightGBM6CommonL8AvoidInfEf.exit

_ZN8LightGBM6CommonL8AvoidInfEf.exit:             ; preds = %31, %28, %24
  %.0.i = phi float [ 0.000000e+00, %24 ], [ 0x47D2CED320000000, %28 ], [ %..i, %31 ]
  %33 = getelementptr inbounds nuw float, ptr %18, i64 %indvars.iv22
  store float %.0.i, ptr %33, align 4, !tbaa !68
  %indvars.iv.next23 = add nsw i64 %indvars.iv22, 1
  %.not15.not = icmp slt i64 %indvars.iv22, %23
  br i1 %.not15.not, label %24, label %34

34:                                               ; preds = %_ZN8LightGBM6CommonL8AvoidInfEf.exit
  %indvars.iv.next = add i64 %indvars.iv, %21
  %indvars = trunc i64 %indvars.iv.next to i32
  %35 = add nsw i32 %19, %22
  %36 = call i32 @llvm.smin.i32(i32 %35, i32 %11)
  %.not = icmp slt i32 %36, %indvars
  br i1 %.not, label %._crit_edge, label %.preheader

._crit_edge:                                      ; preds = %34
  store i32 %indvars, ptr %5, align 4, !tbaa !59
  br label %37

37:                                               ; preds = %._crit_edge, %13
  %.lcssa = phi i32 [ %36, %._crit_edge ], [ %15, %13 ]
  store i32 %.lcssa, ptr %6, align 4, !tbaa !59
  call void @__kmpc_for_static_fini(ptr nonnull @1, i32 %14)
  call void @llvm.lifetime.end.p0(i64 4, ptr nonnull %8) #20
  call void @llvm.lifetime.end.p0(i64 4, ptr nonnull %7) #20
  call void @llvm.lifetime.end.p0(i64 4, ptr nonnull %6) #20
  call void @llvm.lifetime.end.p0(i64 4, ptr nonnull %5) #20
  br label %38

38:                                               ; preds = %37, %4
  ret void
}